target datalayout = "e-m:e-p270:32:32-p271:32:32-p272:64:64-i64:64-i128:128-f80:128-n8:16:32:64-S128"
target triple = "x86_64-pc-linux-gnu"

@.str.83 = private unnamed_addr constant [167 x i8] c"Usage: %s [ -l ] [ -v ] [ -verbose] [-a] [ -all] [-n] [ -no_err_msg]\0A    [ -h ] [-t_info | -t_error | -t_warn | -t_oc | -t_verbose] [-m n[-q] ]\0A    [ /path/to/test ]\0A\00", align 1
@.str.84 = private unnamed_addr constant [37 x i8] c"    -l  To get a list of test names\0A\00", align 1
@.str.85 = private unnamed_addr constant [34 x i8] c"    -e  to do exhaustive testing\0A\00", align 1
@.str.86 = private unnamed_addr constant [35 x i8] c"    -verbose To turn ON verbosity\0A\00", align 1
@.str.87 = private unnamed_addr constant [48 x i8] c"    -v  To turn ON verbosity(same as -verbose)\0A\00", align 1
@.str.88 = private unnamed_addr constant [57 x i8] c"    -x file.xml   Write junit format output to file.xml\0A\00", align 1
@.str.89 = private unnamed_addr constant [31 x i8] c"    -h  To print this message\0A\00", align 1
@.str.90 = private unnamed_addr constant [46 x i8] c"    -K  to turn OFF suppressing known issues\0A\00", align 1
@.str.91 = private unnamed_addr constant [45 x i8] c"    -n  To turn OFF printing error messages\0A\00", align 1
@.str.92 = private unnamed_addr constant [124 x i8] c"    -w  Don't fail on data-loading errs, just warn. Useful if\0A        user has reduced/changed the common set of ICU data \0A\00", align 1
@.str.93 = private unnamed_addr constant [75 x i8] c"    -t_info | -t_error | -t_warn | -t_oc | -t_verbose  Enable ICU tracing\0A\00", align 1
@.str.94 = private unnamed_addr constant [31 x i8] c"    -no_err_msg (same as -n) \0A\00", align 1
@.str.95 = private unnamed_addr constant [73 x i8] c"    -m n[-q] Min-Max memory size that will cause an allocation failure.\0A\00", align 1
@.str.96 = private unnamed_addr constant [70 x i8] c"        The default is the maximum value of size_t. Max is optional.\0A\00", align 1
@.str.97 = private unnamed_addr constant [47 x i8] c"    -r  Repeat tests after calling u_cleanup \0A\00", align 1
@.str.98 = private unnamed_addr constant [34 x i8] c"    -G  Write golden data files \0A\00", align 1
@.str.99 = private unnamed_addr constant [35 x i8] c"    [/subtest]  To run a subtest \0A\00", align 1
@.str.100 = private unnamed_addr constant [65 x i8] c"    eg: to run just the utility tests type: cintltest /tsutil) \0A\00", align 1

; Function Attrs: nounwind uwtable
define internal void @help(ptr noundef %0) #0 {
  %2 = alloca ptr, align 8
  store ptr %0, ptr %2, align 8, !tbaa !15
  %3 = load ptr, ptr %2, align 8, !tbaa !15
  %4 = call i32 (ptr, ...) @printf(ptr noundef @.str.83, ptr noundef %3)
  %5 = call i32 (ptr, ...) @printf(ptr noundef @.str.84)
  %6 = call i32 (ptr, ...) @printf(ptr noundef @.str.85)
  %7 = call i32 (ptr, ...) @printf(ptr noundef @.str.86)
  %8 = call i32 (ptr, ...) @printf(ptr noundef @.str.87)
  %9 = call i32 (ptr, ...) @printf(ptr noundef @.str.88)
  %10 = call i32 (ptr, ...) @printf(ptr noundef @.str.89)
  %11 = call i32 (ptr, ...) @printf(ptr noundef @.str.90)
  %12 = call i32 (ptr, ...) @printf(ptr noundef @.str.91)
  %13 = call i32 (ptr, ...) @printf(ptr noundef @.str.92)
  %14 = call i32 (ptr, ...) @printf(ptr noundef @.str.93)
  %15 = call i32 (ptr, ...) @printf(ptr noundef @.str.94)
  %16 = call i32 (ptr, ...) @printf(ptr noundef @.str.95)
  %17 = call i32 (ptr, ...) @printf(ptr noundef @.str.96)
  %18 = call i32 (ptr, ...) @printf(ptr noundef @.str.97)
  %19 = call i32 (ptr, ...) @printf(ptr noundef @.str.98)
  %20 = call i32 (ptr, ...) @printf(ptr noundef @.str.99)
  %21 = call i32 (ptr, ...) @printf(ptr noundef @.str.100)
  ret void
}