; Function Attrs: nofree nounwind uwtable
define internal fastcc void @help(ptr noundef %0) unnamed_addr #2 {
  %2 = tail call i32 (ptr, ...) @printf(ptr noundef nonnull dereferenceable(1) @.str.83, ptr noundef %0)
  %puts = tail call i32 @puts(ptr nonnull dereferenceable(1) @str.1)
  %puts1 = tail call i32 @puts(ptr nonnull dereferenceable(1) @str.2)
  %puts2 = tail call i32 @puts(ptr nonnull dereferenceable(1) @str.3)
  %puts3 = tail call i32 @puts(ptr nonnull dereferenceable(1) @str.4)
  %puts4 = tail call i32 @puts(ptr nonnull dereferenceable(1) @str.5)
  %puts5 = tail call i32 @puts(ptr nonnull dereferenceable(1) @str.6)
  %puts6 = tail call i32 @puts(ptr nonnull dereferenceable(1) @str.7)
  %puts7 = tail call i32 @puts(ptr nonnull dereferenceable(1) @str.8)
  %puts8 = tail call i32 @puts(ptr nonnull dereferenceable(1) @str.9)
  %puts9 = tail call i32 @puts(ptr nonnull dereferenceable(1) @str.10)
  %puts10 = tail call i32 @puts(ptr nonnull dereferenceable(1) @str.11)
  %puts11 = tail call i32 @puts(ptr nonnull dereferenceable(1) @str.12)
  %puts12 = tail call i32 @puts(ptr nonnull dereferenceable(1) @str.13)
  %puts13 = tail call i32 @puts(ptr nonnull dereferenceable(1) @str.14)
  %puts14 = tail call i32 @puts(ptr nonnull dereferenceable(1) @str.15)
  %puts15 = tail call i32 @puts(ptr nonnull dereferenceable(1) @str.16)
  %puts16 = tail call i32 @puts(ptr nonnull dereferenceable(1) @str.17)
  ret void
}